target datalayout = "e-m:e-p270:32:32-p271:32:32-p272:64:64-i64:64-i128:128-f80:128-n8:16:32:64-S128"
target triple = "x86_64-pc-linux-gnu"

%"class.open3d::core::Dtype" = type { i32, i64, [16 x i8] }
%"class.std::__shared_count" = type { ptr }
%"class.pybind11::object" = type { %"class.pybind11::handle" }
%"class.pybind11::handle" = type { ptr }
%"class.pybind11::tuple" = type { %"class.pybind11::object" }
%"class.open3d::core::Tensor" = type { %"class.open3d::core::IsDevice", %"class.open3d::core::SizeVector", %"class.open3d::core::SizeVector", ptr, %"class.open3d::core::Dtype", %"class.std::shared_ptr.367" }
%"class.open3d::core::IsDevice" = type { ptr }
%"class.open3d::core::SizeVector" = type { %"class.open3d::core::SmallVector" }
%"class.open3d::core::SmallVector" = type { %"class.open3d::core::SmallVectorImpl", %"struct.open3d::core::SmallVectorStorage" }
%"class.open3d::core::SmallVectorImpl" = type { %"class.open3d::core::SmallVectorTemplateBase" }
%"class.open3d::core::SmallVectorTemplateBase" = type { %"class.open3d::core::SmallVectorTemplateCommon" }
%"class.open3d::core::SmallVectorTemplateCommon" = type { %"class.open3d::core::SmallVectorBase" }
%"class.open3d::core::SmallVectorBase" = type { ptr, i32, i32 }
%"struct.open3d::core::SmallVectorStorage" = type { [32 x i8] }
%"class.std::shared_ptr.367" = type { %"class.std::__shared_ptr.368" }
%"class.std::__shared_ptr.368" = type { ptr, %"class.std::__shared_count" }
%"class.open3d::core::TensorKey" = type { %"class.std::shared_ptr.371" }
%"class.std::shared_ptr.371" = type { %"class.std::__shared_ptr.372" }
%"class.std::__shared_ptr.372" = type { ptr, %"class.std::__shared_count" }
%"class.open3d::core::Device" = type { i32, i32 }
%"class.open3d::utility::optional.587" = type { %"struct.open3d::utility::constexpr_optional_base.588" }
%"struct.open3d::utility::constexpr_optional_base.588" = type { i8, %"union.open3d::utility::constexpr_storage_t.589" }
%"union.open3d::utility::constexpr_storage_t.589" = type { %"class.open3d::core::Dtype" }
%"class.open3d::utility::optional.590" = type { %"struct.open3d::utility::constexpr_optional_base.591" }
%"struct.open3d::utility::constexpr_optional_base.591" = type { i8, %"union.open3d::utility::constexpr_storage_t.592" }
%"union.open3d::utility::constexpr_storage_t.592" = type { %"class.open3d::core::Device" }

@_ZN6open3d4core4BoolE = external global %"class.open3d::core::Dtype", align 8
@_ZN6open3d4core5Int64E = external global %"class.open3d::core::Dtype", align 8

; Function Attrs: mustprogress nounwind ssp uwtable
define linkonce_odr hidden void @_ZN6open3d7utility19constexpr_storage_tINS_4core6DeviceEEC2ENS0_14trivial_init_tE(ptr noundef nonnull align 4 dereferenceable(8) %0) unnamed_addr #5 comdat align 2 {
  %2 = alloca ptr, align 8
  store ptr %0, ptr %2, align 8, !tbaa !4134
  %3 = load ptr, ptr %2, align 8
  store i8 0, ptr %3, align 4, !tbaa !256
  ret void
}

; Function Attrs: mustprogress nounwind ssp uwtable
define linkonce_odr hidden void @_ZN6open3d7utility19constexpr_storage_tINS_4core5DtypeEEC2ENS0_14trivial_init_tE(ptr noundef nonnull align 8 dereferenceable(32) %0) unnamed_addr #5 comdat align 2 {
  %2 = alloca ptr, align 8
  store ptr %0, ptr %2, align 8, !tbaa !4128
  %3 = load ptr, ptr %2, align 8
  store i8 0, ptr %3, align 8, !tbaa !256
  ret void
}

; Function Attrs: mustprogress nounwind ssp uwtable
define linkonce_odr hidden void @_ZN6open3d7utility23constexpr_optional_baseINS_4core6DeviceEEC2Ev(ptr noundef nonnull align 4 dereferenceable(12) %0) unnamed_addr #5 comdat align 2 {
  %2 = alloca ptr, align 8
  store ptr %0, ptr %2, align 8, !tbaa !4130
  %3 = load ptr, ptr %2, align 8
  %4 = getelementptr inbounds nuw %"struct.open3d::utility::constexpr_optional_base.591", ptr %3, i32 0, i32 0
  store i8 0, ptr %4, align 4, !tbaa !4132
  %5 = getelementptr inbounds nuw %"struct.open3d::utility::constexpr_optional_base.591", ptr %3, i32 0, i32 1
  call void @_ZN6open3d7utility19constexpr_storage_tINS_4core6DeviceEEC2ENS0_14trivial_init_tE(ptr noundef nonnull align 4 dereferenceable(8) %5) #25
  ret void
}

; Function Attrs: mustprogress nounwind ssp uwtable
define linkonce_odr hidden void @_ZN6open3d7utility23constexpr_optional_baseINS_4core5DtypeEEC2Ev(ptr noundef nonnull align 8 dereferenceable(40) %0) unnamed_addr #5 comdat align 2 {
  %2 = alloca ptr, align 8
  store ptr %0, ptr %2, align 8, !tbaa !4124
  %3 = load ptr, ptr %2, align 8
  %4 = getelementptr inbounds nuw %"struct.open3d::utility::constexpr_optional_base.588", ptr %3, i32 0, i32 0
  store i8 0, ptr %4, align 8, !tbaa !4126
  %5 = getelementptr inbounds nuw %"struct.open3d::utility::constexpr_optional_base.588", ptr %3, i32 0, i32 1
  call void @_ZN6open3d7utility19constexpr_storage_tINS_4core5DtypeEEC2ENS0_14trivial_init_tE(ptr noundef nonnull align 8 dereferenceable(32) %5) #25
  ret void
}

; Function Attrs: inlinehint mustprogress nounwind ssp uwtable
define linkonce_odr hidden void @_ZNK6open3d4core6Tensor8GetDtypeEv(ptr dead_on_unwind noalias writable sret(%"class.open3d::core::Dtype") align 8 %0, ptr noundef nonnull align 8 dereferenceable(160) %1) #0 comdat align 2 !type !2678 {
  %3 = alloca ptr, align 8
  store ptr %1, ptr %3, align 8, !tbaa !2616
  %4 = load ptr, ptr %3, align 8
  %5 = getelementptr inbounds nuw %"class.open3d::core::Tensor", ptr %4, i32 0, i32 4
  call void @llvm.memcpy.p0.p0.i64(ptr align 8 %0, ptr align 8 %5, i64 32, i1 false), !tbaa.struct !2668
  ret void
}

; Function Attrs: mustprogress nounwind ssp uwtable
define linkonce_odr hidden void @_ZN6open3d7utility8optionalINS_4core6DeviceEEC2ENS0_9nullopt_tE(ptr noundef nonnull align 4 dereferenceable(12) %0) unnamed_addr #5 comdat align 2 {
  %2 = alloca ptr, align 8
  store ptr %0, ptr %2, align 8, !tbaa !4122
  %3 = load ptr, ptr %2, align 8
  call void @_ZN6open3d7utility23constexpr_optional_baseINS_4core6DeviceEEC2Ev(ptr noundef nonnull align 4 dereferenceable(12) %3) #25
  ret void
}

; Function Attrs: mustprogress nounwind ssp uwtable
define linkonce_odr hidden void @_ZN6open3d7utility8optionalINS_4core5DtypeEEC2ENS0_9nullopt_tE(ptr noundef nonnull align 8 dereferenceable(40) %0) unnamed_addr #5 comdat align 2 {
  %2 = alloca ptr, align 8
  store ptr %0, ptr %2, align 8, !tbaa !4120
  %3 = load ptr, ptr %2, align 8
  call void @_ZN6open3d7utility23constexpr_optional_baseINS_4core5DtypeEEC2Ev(ptr noundef nonnull align 8 dereferenceable(40) %3) #25
  ret void
}

; Function Attrs: mustprogress ssp uwtable
define internal void @_ZN6open3d4coreL11ToTensorKeyERKN8pybind114listE(ptr dead_on_unwind noalias writable sret(%"class.open3d::core::TensorKey") align 8 %0, ptr noundef nonnull align 8 dereferenceable(8) %1) #4 personality ptr @__gxx_personality_v0 {
  %3 = alloca ptr, align 8
  %4 = alloca ptr, align 8
  %5 = alloca %"class.open3d::core::Tensor", align 8
  %6 = alloca %"class.pybind11::tuple", align 8
  %7 = alloca %"class.open3d::utility::optional.587", align 8
  %8 = alloca %"class.open3d::utility::optional.590", align 4
  %9 = alloca ptr, align 8
  %10 = alloca i32, align 4
  %11 = alloca %"class.open3d::core::Dtype", align 8
  %12 = alloca %"class.open3d::core::Tensor", align 8
  %13 = alloca %"class.open3d::core::Dtype", align 8
  store ptr %0, ptr %3, align 8
  store ptr %1, ptr %4, align 8, !tbaa !4111
  call void @llvm.lifetime.start.p0(i64 160, ptr %5) #25
  call void @llvm.lifetime.start.p0(i64 8, ptr %6) #25
  %14 = load ptr, ptr %4, align 8, !tbaa !4111
  call void @_ZN8pybind115tupleC2ERKNS_6objectE(ptr noundef nonnull align 8 dereferenceable(8) %6, ptr noundef nonnull align 8 dereferenceable(8) %14)
  call void @_ZN6open3d7utility8optionalINS_4core5DtypeEEC2ENS0_9nullopt_tE(ptr noundef nonnull align 8 dereferenceable(40) %7) #25
  call void @_ZN6open3d7utility8optionalINS_4core6DeviceEEC2ENS0_9nullopt_tE(ptr noundef nonnull align 4 dereferenceable(12) %8) #25
  invoke void @_ZN6open3d4core15PyTupleToTensorERKN8pybind115tupleENS_7utility8optionalINS0_5DtypeEEENS6_INS0_6DeviceEEE(ptr dead_on_unwind writable sret(%"class.open3d::core::Tensor") align 8 %5, ptr noundef nonnull align 8 dereferenceable(8) %6, ptr noundef %7, ptr noundef %8)
          to label %15 unwind label %22

15:                                               ; preds = %2
  call void @_ZN8pybind116objectD2Ev(ptr noundef nonnull align 8 dereferenceable(8) %6) #25
  call void @llvm.lifetime.end.p0(i64 8, ptr %6) #25
  call void @llvm.lifetime.start.p0(i64 32, ptr %11) #25
  call void @_ZNK6open3d4core6Tensor8GetDtypeEv(ptr dead_on_unwind writable sret(%"class.open3d::core::Dtype") align 8 %11, ptr noundef nonnull align 8 dereferenceable(160) %5)
  %16 = invoke noundef zeroext i1 @_ZNK6open3d4core5DtypeneERKS1_(ptr noundef nonnull align 8 dereferenceable(32) %11, ptr noundef nonnull align 8 dereferenceable(32) @_ZN6open3d4core4BoolE)
          to label %17 unwind label %26

17:                                               ; preds = %15
  call void @llvm.lifetime.end.p0(i64 32, ptr %11) #25
  br i1 %16, label %18, label %39

18:                                               ; preds = %17
  call void @llvm.lifetime.start.p0(i64 160, ptr %12) #25
  call void @llvm.memcpy.p0.p0.i64(ptr align 8 %13, ptr align 8 @_ZN6open3d4core5Int64E, i64 32, i1 false), !tbaa.struct !2668
  invoke void @_ZNK6open3d4core6Tensor2ToENS0_5DtypeEb(ptr dead_on_unwind writable sret(%"class.open3d::core::Tensor") align 8 %12, ptr noundef nonnull align 8 dereferenceable(160) %5, ptr noundef byval(%"class.open3d::core::Dtype") align 8 %13, i1 noundef zeroext false)
          to label %19 unwind label %30

19:                                               ; preds = %18
  %20 = invoke noundef nonnull align 8 dereferenceable(160) ptr @_ZNR6open3d4core6TensoraSEOS1_(ptr noundef nonnull align 8 dereferenceable(160) %5, ptr noundef nonnull align 8 dereferenceable(160) %12)
          to label %21 unwind label %34

21:                                               ; preds = %19
  call void @_ZN6open3d4core6TensorD2Ev(ptr noundef nonnull align 8 dereferenceable(160) %12) #25
  call void @llvm.lifetime.end.p0(i64 160, ptr %12) #25
  br label %39

22:                                               ; preds = %2
  %23 = landingpad { ptr, i32 }
          cleanup
  %24 = extractvalue { ptr, i32 } %23, 0
  store ptr %24, ptr %9, align 8
  %25 = extractvalue { ptr, i32 } %23, 1
  store i32 %25, ptr %10, align 4
  call void @_ZN8pybind116objectD2Ev(ptr noundef nonnull align 8 dereferenceable(8) %6) #25
  call void @llvm.lifetime.end.p0(i64 8, ptr %6) #25
  br label %46

26:                                               ; preds = %15
  %27 = landingpad { ptr, i32 }
          cleanup
  %28 = extractvalue { ptr, i32 } %27, 0
  store ptr %28, ptr %9, align 8
  %29 = extractvalue { ptr, i32 } %27, 1
  store i32 %29, ptr %10, align 4
  call void @llvm.lifetime.end.p0(i64 32, ptr %11) #25
  br label %45

30:                                               ; preds = %18
  %31 = landingpad { ptr, i32 }
          cleanup
  %32 = extractvalue { ptr, i32 } %31, 0
  store ptr %32, ptr %9, align 8
  %33 = extractvalue { ptr, i32 } %31, 1
  store i32 %33, ptr %10, align 4
  br label %38

34:                                               ; preds = %19
  %35 = landingpad { ptr, i32 }
          cleanup
  %36 = extractvalue { ptr, i32 } %35, 0
  store ptr %36, ptr %9, align 8
  %37 = extractvalue { ptr, i32 } %35, 1
  store i32 %37, ptr %10, align 4
  call void @_ZN6open3d4core6TensorD2Ev(ptr noundef nonnull align 8 dereferenceable(160) %12) #25
  br label %38

38:                                               ; preds = %34, %30
  call void @llvm.lifetime.end.p0(i64 160, ptr %12) #25
  br label %45

39:                                               ; preds = %21, %17
  invoke void @_ZN6open3d4core9TensorKey11IndexTensorERKNS0_6TensorE(ptr dead_on_unwind writable sret(%"class.open3d::core::TensorKey") align 8 %0, ptr noundef nonnull align 8 dereferenceable(160) %5)
          to label %40 unwind label %41

40:                                               ; preds = %39
  call void @_ZN6open3d4core6TensorD2Ev(ptr noundef nonnull align 8 dereferenceable(160) %5) #25
  call void @llvm.lifetime.end.p0(i64 160, ptr %5) #25
  ret void

41:                                               ; preds = %39
  %42 = landingpad { ptr, i32 }
          cleanup
  %43 = extractvalue { ptr, i32 } %42, 0
  store ptr %43, ptr %9, align 8
  %44 = extractvalue { ptr, i32 } %42, 1
  store i32 %44, ptr %10, align 4
  br label %45

45:                                               ; preds = %41, %38, %26
  call void @_ZN6open3d4core6TensorD2Ev(ptr noundef nonnull align 8 dereferenceable(160) %5) #25
  br label %46

46:                                               ; preds = %45, %22
  call void @llvm.lifetime.end.p0(i64 160, ptr %5) #25
  br label %47

47:                                               ; preds = %46
  %48 = load ptr, ptr %9, align 8
  %49 = load i32, ptr %10, align 4
  %50 = insertvalue { ptr, i32 } poison, ptr %48, 0
  %51 = insertvalue { ptr, i32 } %50, i32 %49, 1
  resume { ptr, i32 } %51
}