; Function Attrs: mustprogress ssp uwtable
define internal fastcc void @_ZN6open3d4coreL11ToTensorKeyERKN8pybind114listE(ptr dead_on_unwind noalias nonnull writable align 8 %0, ptr noundef nonnull align 8 dereferenceable(8) %1) unnamed_addr #5 personality ptr @__gxx_personality_v0 {
  %3 = alloca %"class.open3d::core::Tensor", align 8
  %4 = alloca %"class.pybind11::tuple", align 8
  %5 = alloca %"class.open3d::utility::optional.587", align 8
  %6 = alloca %"class.open3d::utility::optional.590", align 4
  %7 = alloca %"class.open3d::core::Dtype", align 8
  %8 = alloca %"class.open3d::core::Tensor", align 8
  call void @llvm.lifetime.start.p0(i64 160, ptr nonnull %3) #33
  call void @llvm.lifetime.start.p0(i64 8, ptr nonnull %4) #33
  call void @_ZN8pybind115tupleC2ERKNS_6objectE(ptr noundef nonnull align 8 dereferenceable(8) %4, ptr noundef nonnull align 8 dereferenceable(8) %1)
  store i8 0, ptr %5, align 8, !tbaa !2067
  %9 = getelementptr inbounds nuw i8, ptr %5, i64 8
  store i8 0, ptr %9, align 8, !tbaa !136
  store i8 0, ptr %6, align 4, !tbaa !2069
  %10 = getelementptr inbounds nuw i8, ptr %6, i64 4
  store i8 0, ptr %10, align 4, !tbaa !136
  invoke void @_ZN6open3d4core15PyTupleToTensorERKN8pybind115tupleENS_7utility8optionalINS0_5DtypeEEENS6_INS0_6DeviceEEE(ptr dead_on_unwind nonnull writable sret(%"class.open3d::core::Tensor") align 8 %3, ptr noundef nonnull align 8 dereferenceable(8) %4, ptr noundef nonnull %5, ptr noundef nonnull %6)
          to label %11 unwind label %63

11:                                               ; preds = %2
  %12 = load ptr, ptr %4, align 8, !tbaa !147
  %.not.i.i.i = icmp eq ptr %12, null
  br i1 %.not.i.i.i, label %_ZN8pybind116objectD2Ev.exit, label %13

13:                                               ; preds = %11
  %14 = load i64, ptr %12, align 8, !tbaa !136
  %15 = and i64 %14, 2147483648
  %.not2.i.i.i = icmp eq i64 %15, 0
  br i1 %.not2.i.i.i, label %16, label %_ZN8pybind116objectD2Ev.exit

16:                                               ; preds = %13
  %17 = add nsw i64 %14, -1
  store i64 %17, ptr %12, align 8, !tbaa !136
  %18 = icmp eq i64 %17, 0
  br i1 %18, label %19, label %_ZN8pybind116objectD2Ev.exit

19:                                               ; preds = %16
  invoke void @_Py_Dealloc(ptr noundef nonnull %12)
          to label %_ZN8pybind116objectD2Ev.exit unwind label %20

20:                                               ; preds = %19
  %21 = landingpad { ptr, i32 }
          catch ptr null
  %22 = extractvalue { ptr, i32 } %21, 0
  call void @__clang_call_terminate(ptr %22) #34
  unreachable

_ZN8pybind116objectD2Ev.exit:                     ; preds = %11, %13, %16, %19
  call void @llvm.lifetime.end.p0(i64 8, ptr nonnull %4) #33
  call void @llvm.lifetime.start.p0(i64 32, ptr nonnull %7) #33
  %23 = getelementptr inbounds nuw i8, ptr %3, i64 112
  call void @llvm.memcpy.p0.p0.i64(ptr noundef nonnull align 8 dereferenceable(32) %7, ptr noundef nonnull align 8 dereferenceable(32) %23, i64 32, i1 false), !tbaa.struct !1190
  %24 = invoke noundef zeroext i1 @_ZNK6open3d4core5DtypeneERKS1_(ptr noundef nonnull align 8 dereferenceable(32) %7, ptr noundef nonnull align 8 dereferenceable(32) @_ZN6open3d4core4BoolE)
          to label %25 unwind label %65

25:                                               ; preds = %_ZN8pybind116objectD2Ev.exit
  call void @llvm.lifetime.end.p0(i64 32, ptr nonnull %7) #33
  br i1 %24, label %26, label %72

26:                                               ; preds = %25
  call void @llvm.lifetime.start.p0(i64 160, ptr nonnull %8) #33
  invoke void @_ZNK6open3d4core6Tensor2ToENS0_5DtypeEb(ptr dead_on_unwind nonnull writable sret(%"class.open3d::core::Tensor") align 8 %8, ptr noundef nonnull align 8 dereferenceable(160) %3, ptr noundef nonnull byval(%"class.open3d::core::Dtype") align 8 @_ZN6open3d4core5Int64E, i1 noundef zeroext false)
          to label %27 unwind label %67

27:                                               ; preds = %26
  %28 = invoke noundef nonnull align 8 dereferenceable(160) ptr @_ZNR6open3d4core6TensoraSEOS1_(ptr noundef nonnull align 8 dereferenceable(160) %3, ptr noundef nonnull align 8 dereferenceable(160) %8)
          to label %29 unwind label %69

29:                                               ; preds = %27
  store ptr getelementptr inbounds nuw inrange(-16, 24) (i8, ptr @_ZTVN6open3d4core6TensorE, i64 16), ptr %8, align 8, !tbaa !292
  %30 = getelementptr inbounds nuw i8, ptr %8, i64 152
  %31 = load ptr, ptr %30, align 8, !tbaa !294
  %.not.i.i.i9 = icmp eq ptr %31, null
  br i1 %.not.i.i.i9, label %_ZNSt12__shared_ptrIN6open3d4core4BlobELN9__gnu_cxx12_Lock_policyE2EED2Ev.exit.i, label %32

32:                                               ; preds = %29
  %33 = getelementptr inbounds nuw i8, ptr %31, i64 8
  %34 = load atomic i64, ptr %33 acquire, align 8
  %35 = icmp eq i64 %34, 4294967297
  %36 = trunc i64 %34 to i32
  br i1 %35, label %37, label %45

37:                                               ; preds = %32
  store i32 0, ptr %33, align 8, !tbaa !295
  %38 = getelementptr inbounds nuw i8, ptr %31, i64 12
  store i32 0, ptr %38, align 4, !tbaa !297
  %39 = load ptr, ptr %31, align 8, !tbaa !292
  %40 = getelementptr inbounds nuw i8, ptr %39, i64 16
  %41 = load ptr, ptr %40, align 8
  call void %41(ptr noundef nonnull align 8 dereferenceable(16) %31) #33
  %42 = load ptr, ptr %31, align 8, !tbaa !292
  %43 = getelementptr inbounds nuw i8, ptr %42, i64 24
  %44 = load ptr, ptr %43, align 8
  call void %44(ptr noundef nonnull align 8 dereferenceable(16) %31) #33
  br label %_ZNSt12__shared_ptrIN6open3d4core4BlobELN9__gnu_cxx12_Lock_policyE2EED2Ev.exit.i

45:                                               ; preds = %32
  %46 = load i8, ptr @__libc_single_threaded, align 1, !tbaa !136
  %.not.i.i.i.i = icmp eq i8 %46, 0
  br i1 %.not.i.i.i.i, label %49, label %47

47:                                               ; preds = %45
  %48 = add nsw i32 %36, -1
  store i32 %48, ptr %33, align 4, !tbaa !298
  br label %_ZN9__gnu_cxx27__exchange_and_add_dispatchEPii.exit.i.i.i.i

49:                                               ; preds = %45
  %50 = atomicrmw volatile add ptr %33, i32 -1 acq_rel, align 4
  br label %_ZN9__gnu_cxx27__exchange_and_add_dispatchEPii.exit.i.i.i.i

_ZN9__gnu_cxx27__exchange_and_add_dispatchEPii.exit.i.i.i.i: ; preds = %49, %47
  %.0.i.i.i.i.i = phi i32 [ %36, %47 ], [ %50, %49 ]
  %51 = icmp eq i32 %.0.i.i.i.i.i, 1
  br i1 %51, label %52, label %_ZNSt12__shared_ptrIN6open3d4core4BlobELN9__gnu_cxx12_Lock_policyE2EED2Ev.exit.i, !prof !299

52:                                               ; preds = %_ZN9__gnu_cxx27__exchange_and_add_dispatchEPii.exit.i.i.i.i
  call void @_ZNSt16_Sp_counted_baseILN9__gnu_cxx12_Lock_policyE2EE24_M_release_last_use_coldEv(ptr noundef nonnull align 8 dereferenceable(16) %31) #33
  br label %_ZNSt12__shared_ptrIN6open3d4core4BlobELN9__gnu_cxx12_Lock_policyE2EED2Ev.exit.i

_ZNSt12__shared_ptrIN6open3d4core4BlobELN9__gnu_cxx12_Lock_policyE2EED2Ev.exit.i: ; preds = %52, %_ZN9__gnu_cxx27__exchange_and_add_dispatchEPii.exit.i.i.i.i, %37, %29
  %53 = getelementptr inbounds nuw i8, ptr %8, i64 56
  %54 = load ptr, ptr %53, align 8, !tbaa !1172
  %55 = getelementptr inbounds nuw i8, ptr %8, i64 72
  %56 = icmp eq ptr %54, %55
  br i1 %56, label %_ZN6open3d4core11SmallVectorIlLj4EED2Ev.exit.i, label %57

57:                                               ; preds = %_ZNSt12__shared_ptrIN6open3d4core4BlobELN9__gnu_cxx12_Lock_policyE2EED2Ev.exit.i
  call void @free(ptr noundef %54) #33
  br label %_ZN6open3d4core11SmallVectorIlLj4EED2Ev.exit.i

_ZN6open3d4core11SmallVectorIlLj4EED2Ev.exit.i:   ; preds = %57, %_ZNSt12__shared_ptrIN6open3d4core4BlobELN9__gnu_cxx12_Lock_policyE2EED2Ev.exit.i
  %58 = getelementptr inbounds nuw i8, ptr %8, i64 8
  %59 = load ptr, ptr %58, align 8, !tbaa !1172
  %60 = getelementptr inbounds nuw i8, ptr %8, i64 24
  %61 = icmp eq ptr %59, %60
  br i1 %61, label %_ZN6open3d4core6TensorD2Ev.exit, label %62

62:                                               ; preds = %_ZN6open3d4core11SmallVectorIlLj4EED2Ev.exit.i
  call void @free(ptr noundef %59) #33
  br label %_ZN6open3d4core6TensorD2Ev.exit

_ZN6open3d4core6TensorD2Ev.exit:                  ; preds = %_ZN6open3d4core11SmallVectorIlLj4EED2Ev.exit.i, %62
  call void @llvm.lifetime.end.p0(i64 160, ptr nonnull %8) #33
  br label %72

63:                                               ; preds = %2
  %64 = landingpad { ptr, i32 }
          cleanup
  call void @_ZN8pybind116objectD2Ev(ptr noundef nonnull align 8 dereferenceable(8) %4) #33
  call void @llvm.lifetime.end.p0(i64 8, ptr nonnull %4) #33
  br label %110

65:                                               ; preds = %_ZN8pybind116objectD2Ev.exit
  %66 = landingpad { ptr, i32 }
          cleanup
  call void @llvm.lifetime.end.p0(i64 32, ptr nonnull %7) #33
  br label %109

67:                                               ; preds = %26
  %68 = landingpad { ptr, i32 }
          cleanup
  br label %71

69:                                               ; preds = %27
  %70 = landingpad { ptr, i32 }
          cleanup
  call void @_ZN6open3d4core6TensorD2Ev(ptr noundef nonnull align 8 dereferenceable(160) %8) #33
  br label %71

71:                                               ; preds = %69, %67
  %.pn = phi { ptr, i32 } [ %70, %69 ], [ %68, %67 ]
  call void @llvm.lifetime.end.p0(i64 160, ptr nonnull %8) #33
  br label %109

72:                                               ; preds = %_ZN6open3d4core6TensorD2Ev.exit, %25
  invoke void @_ZN6open3d4core9TensorKey11IndexTensorERKNS0_6TensorE(ptr dead_on_unwind nonnull writable sret(%"class.open3d::core::TensorKey") align 8 %0, ptr noundef nonnull align 8 dereferenceable(160) %3)
          to label %73 unwind label %107

73:                                               ; preds = %72
  store ptr getelementptr inbounds nuw inrange(-16, 24) (i8, ptr @_ZTVN6open3d4core6TensorE, i64 16), ptr %3, align 8, !tbaa !292
  %74 = getelementptr inbounds nuw i8, ptr %3, i64 152
  %75 = load ptr, ptr %74, align 8, !tbaa !294
  %.not.i.i.i10 = icmp eq ptr %75, null
  br i1 %.not.i.i.i10, label %_ZNSt12__shared_ptrIN6open3d4core4BlobELN9__gnu_cxx12_Lock_policyE2EED2Ev.exit.i14, label %76

76:                                               ; preds = %73
  %77 = getelementptr inbounds nuw i8, ptr %75, i64 8
  %78 = load atomic i64, ptr %77 acquire, align 8
  %79 = icmp eq i64 %78, 4294967297
  %80 = trunc i64 %78 to i32
  br i1 %79, label %81, label %89

81:                                               ; preds = %76
  store i32 0, ptr %77, align 8, !tbaa !295
  %82 = getelementptr inbounds nuw i8, ptr %75, i64 12
  store i32 0, ptr %82, align 4, !tbaa !297
  %83 = load ptr, ptr %75, align 8, !tbaa !292
  %84 = getelementptr inbounds nuw i8, ptr %83, i64 16
  %85 = load ptr, ptr %84, align 8
  call void %85(ptr noundef nonnull align 8 dereferenceable(16) %75) #33
  %86 = load ptr, ptr %75, align 8, !tbaa !292
  %87 = getelementptr inbounds nuw i8, ptr %86, i64 24
  %88 = load ptr, ptr %87, align 8
  call void %88(ptr noundef nonnull align 8 dereferenceable(16) %75) #33
  br label %_ZNSt12__shared_ptrIN6open3d4core4BlobELN9__gnu_cxx12_Lock_policyE2EED2Ev.exit.i14

89:                                               ; preds = %76
  %90 = load i8, ptr @__libc_single_threaded, align 1, !tbaa !136
  %.not.i.i.i.i11 = icmp eq i8 %90, 0
  br i1 %.not.i.i.i.i11, label %93, label %91

91:                                               ; preds = %89
  %92 = add nsw i32 %80, -1
  store i32 %92, ptr %77, align 4, !tbaa !298
  br label %_ZN9__gnu_cxx27__exchange_and_add_dispatchEPii.exit.i.i.i.i12

93:                                               ; preds = %89
  %94 = atomicrmw volatile add ptr %77, i32 -1 acq_rel, align 4
  br label %_ZN9__gnu_cxx27__exchange_and_add_dispatchEPii.exit.i.i.i.i12

_ZN9__gnu_cxx27__exchange_and_add_dispatchEPii.exit.i.i.i.i12: ; preds = %93, %91
  %.0.i.i.i.i.i13 = phi i32 [ %80, %91 ], [ %94, %93 ]
  %95 = icmp eq i32 %.0.i.i.i.i.i13, 1
  br i1 %95, label %96, label %_ZNSt12__shared_ptrIN6open3d4core4BlobELN9__gnu_cxx12_Lock_policyE2EED2Ev.exit.i14, !prof !299

96:                                               ; preds = %_ZN9__gnu_cxx27__exchange_and_add_dispatchEPii.exit.i.i.i.i12
  call void @_ZNSt16_Sp_counted_baseILN9__gnu_cxx12_Lock_policyE2EE24_M_release_last_use_coldEv(ptr noundef nonnull align 8 dereferenceable(16) %75) #33
  br label %_ZNSt12__shared_ptrIN6open3d4core4BlobELN9__gnu_cxx12_Lock_policyE2EED2Ev.exit.i14

_ZNSt12__shared_ptrIN6open3d4core4BlobELN9__gnu_cxx12_Lock_policyE2EED2Ev.exit.i14: ; preds = %96, %_ZN9__gnu_cxx27__exchange_and_add_dispatchEPii.exit.i.i.i.i12, %81, %73
  %97 = getelementptr inbounds nuw i8, ptr %3, i64 56
  %98 = load ptr, ptr %97, align 8, !tbaa !1172
  %99 = getelementptr inbounds nuw i8, ptr %3, i64 72
  %100 = icmp eq ptr %98, %99
  br i1 %100, label %_ZN6open3d4core11SmallVectorIlLj4EED2Ev.exit.i15, label %101

101:                                              ; preds = %_ZNSt12__shared_ptrIN6open3d4core4BlobELN9__gnu_cxx12_Lock_policyE2EED2Ev.exit.i14
  call void @free(ptr noundef %98) #33
  br label %_ZN6open3d4core11SmallVectorIlLj4EED2Ev.exit.i15

_ZN6open3d4core11SmallVectorIlLj4EED2Ev.exit.i15: ; preds = %101, %_ZNSt12__shared_ptrIN6open3d4core4BlobELN9__gnu_cxx12_Lock_policyE2EED2Ev.exit.i14
  %102 = getelementptr inbounds nuw i8, ptr %3, i64 8
  %103 = load ptr, ptr %102, align 8, !tbaa !1172
  %104 = getelementptr inbounds nuw i8, ptr %3, i64 24
  %105 = icmp eq ptr %103, %104
  br i1 %105, label %_ZN6open3d4core6TensorD2Ev.exit16, label %106

106:                                              ; preds = %_ZN6open3d4core11SmallVectorIlLj4EED2Ev.exit.i15
  call void @free(ptr noundef %103) #33
  br label %_ZN6open3d4core6TensorD2Ev.exit16

_ZN6open3d4core6TensorD2Ev.exit16:                ; preds = %_ZN6open3d4core11SmallVectorIlLj4EED2Ev.exit.i15, %106
  call void @llvm.lifetime.end.p0(i64 160, ptr nonnull %3) #33
  ret void

107:                                              ; preds = %72
  %108 = landingpad { ptr, i32 }
          cleanup
  br label %109

109:                                              ; preds = %107, %71, %65
  %.pn6 = phi { ptr, i32 } [ %108, %107 ], [ %.pn, %71 ], [ %66, %65 ]
  call void @_ZN6open3d4core6TensorD2Ev(ptr noundef nonnull align 8 dereferenceable(160) %3) #33
  br label %110

110:                                              ; preds = %109, %63
  %.pn6.pn = phi { ptr, i32 } [ %.pn6, %109 ], [ %64, %63 ]
  call void @llvm.lifetime.end.p0(i64 160, ptr nonnull %3) #33
  resume { ptr, i32 } %.pn6.pn
}